target datalayout = "e-m:e-p270:32:32-p271:32:32-p272:64:64-i64:64-i128:128-f80:128-n8:16:32:64-S128"
target triple = "x86_64-pc-linux-gnu"

%class.LibRaw = type { ptr, %struct.libraw_data_t, ptr, %struct.libraw_internal_data_t, [2048 x %struct.decode], ptr, ptr, [10 x %struct.tiff_ifd_t], %class.libraw_memmgr, %struct.libraw_callbacks_t, { i64, i64 }, { i64, i64 }, { i64, i64 }, ptr, ptr, ptr, i64, ptr, ptr, ptr, ptr }
%struct.libraw_data_t = type { ptr, %struct.libraw_image_sizes_t, %struct.libraw_iparams_t, %struct.libraw_lensinfo_t, %struct.libraw_makernotes_t, %struct.libraw_shootinginfo_t, %struct.libraw_output_params_t, %struct.libraw_raw_unpack_params_t, i32, i32, %struct.libraw_colordata_t, %struct.libraw_imgother_t, %struct.libraw_thumbnail_t, %struct.libraw_thumbnail_list_t, %struct.libraw_rawdata_t, ptr }
%struct.libraw_image_sizes_t = type { i16, i16, i16, i16, i16, i16, i16, i16, i32, double, i32, [8 x [4 x i32]], i16, [2 x %struct.libraw_raw_inset_crop_t] }
%struct.libraw_raw_inset_crop_t = type { i16, i16, i16, i16 }
%struct.libraw_iparams_t = type { [4 x i8], [64 x i8], [64 x i8], [64 x i8], [64 x i8], [64 x i8], i32, i32, i32, i32, i32, i32, [6 x [6 x i8]], [6 x [6 x i8]], [5 x i8], i32, ptr }
%struct.libraw_lensinfo_t = type { float, float, float, float, float, [128 x i8], [128 x i8], [128 x i8], [128 x i8], i16, %struct.libraw_nikonlens_t, %struct.libraw_dnglens_t, %struct.libraw_makernotes_lens_t }
%struct.libraw_nikonlens_t = type { float, i8, i8, i8, i8 }
%struct.libraw_dnglens_t = type { float, float, float, float }
%struct.libraw_makernotes_lens_t = type { i64, [128 x i8], i16, i16, i64, i16, i16, [64 x i8], i16, [16 x i8], [16 x i8], float, float, float, float, float, float, float, float, float, float, float, float, float, float, float, i64, [128 x i8], i64, [128 x i8], i64, [128 x i8], i16, float }
%struct.libraw_makernotes_t = type { %struct.libraw_canon_makernotes_t, %struct.libraw_nikon_makernotes_t, %struct.libraw_hasselblad_makernotes_t, %struct.libraw_fuji_info_t, %struct.libraw_olympus_makernotes_t, %struct.libraw_sony_info_t, %struct.libraw_kodak_makernotes_t, %struct.libraw_panasonic_makernotes_t, %struct.libraw_pentax_makernotes_t, %struct.libraw_p1_makernotes_t, %struct.libraw_ricoh_makernotes_t, %struct.libraw_samsung_makernotes_t, %struct.libraw_metadata_common_t }
%struct.libraw_canon_makernotes_t = type { i32, i32, i32, i32, [4 x i32], i32, [4 x i32], i16, i16, i8, i16, i16, i16, i16, i16, i16, i16, i16, i16, i16, i16, i16, i16, i32, float, i16, i16, i16, i32, i16, i32, i32, i16, i32, %struct.libraw_area_t, %struct.libraw_area_t, %struct.libraw_area_t, %struct.libraw_area_t, %struct.libraw_area_t, [2 x i16] }
%struct.libraw_area_t = type { i16, i16, i16, i16 }
%struct.libraw_nikon_makernotes_t = type { double, i16, i16, [7 x i8], i8, i8, [13 x i8], [20 x i8], [4 x i8], [4 x i8], [4 x i8], i8, i8, i8, i8, i8, [2 x i8], i8, i8, i8, i8, i8, [4 x i8], [4 x i8], i8, i16, i32, i32, i32, i32, [4 x double], i8, i8, i8, i32, i32, i32, i8, [4 x i16], i16, %struct.libraw_sensor_highspeed_crop_t, i16, i16, i16, i32, [20 x i8], [20 x i8], i32, i16, double, double, double }
%struct.libraw_sensor_highspeed_crop_t = type { i16, i16, i16, i16 }
%struct.libraw_hasselblad_makernotes_t = type { i32, double, [8 x i8], [64 x i8], [64 x i8], i32, i32, i32, i32, [32 x i8], [64 x i8], i32, [2 x i32], [2 x i32], [4 x [3 x double]] }
%struct.libraw_fuji_info_t = type { float, i16, i16, i16, i16, i16, i16, i16, i16, [33 x i8], [33 x i8], float, i16, i16, [2 x i16], i16, i32, i32, i16, [3 x i16], i16, i16, i16, i16, i16, i32, i16, [13 x i8], [5 x i8], [5 x i8], i32, i16, i32, i16, [9 x i16], [32 x i32], i32, i32, i32, [2 x float], i32 }
%struct.libraw_olympus_makernotes_t = type { [6 x i8], i16, [2 x i32], [5 x i16], i16, [2 x i16], i16, i16, [64 x i32], [5 x double], i16, i8, [3 x i16], [3 x i32], i16, i16, i16, i16, double, [4 x i16], [2 x i32], i8, i32, i16, i16 }
%struct.libraw_sony_info_t = type { i16, i8, i8, i32, i8, i32, i8, i8, i16, [2 x i16], i8, i8, i16, [10 x i8], i8, i8, [4 x i16], i16, i8, i8, i8, i16, i32, i16, [2 x i16], i16, i16, i16, i16, i16, i16, i16, i32, float, i16, i32, i32, i16, [20 x i8], i32, i16, i32, i8, i8, i16, i16, i16, i16, i16, i16, i16, i16, i16, i32, i16, [16 x i8], float }
%struct.libraw_kodak_makernotes_t = type { i16, i16, i16, i16, i16, i16, [3 x [3 x float]], [3 x [3 x float]], [3 x [3 x float]], [3 x [3 x float]], [3 x [3 x float]], [3 x [3 x float]], i16, i16, i16, i16, float, float }
%struct.libraw_panasonic_makernotes_t = type { i16, i16, [8 x float], i32, float, [3 x i32], i16, i16, i32, i32 }
%struct.libraw_pentax_makernotes_t = type { [4 x i8], [2 x i16], [2 x i16], i16, i32, i32, i16, i16, i8, i8, i16 }
%struct.libraw_p1_makernotes_t = type { [64 x i8], [64 x i8], [256 x i8], [64 x i8] }
%struct.libraw_ricoh_makernotes_t = type { i16, [2 x i32], [2 x i32], i16, i32, i32, i32, i32, i16, i16, i16, i16, i16, i16, double, double }
%struct.libraw_samsung_makernotes_t = type { [4 x i32], [4 x i32], [2 x i32], [11 x i32], double, i32, [32 x i8] }
%struct.libraw_metadata_common_t = type { float, float, float, float, float, float, float, float, float, float, float, float, float, float, float, float, i16, [128 x i8], float, [4 x %struct.libraw_afinfo_item_t], i32 }
%struct.libraw_afinfo_item_t = type { i32, i16, i32, i32, ptr }
%struct.libraw_shootinginfo_t = type { i16, i16, i16, i16, i16, i16, i16, [64 x i8], [64 x i8] }
%struct.libraw_output_params_t = type { [4 x i32], [4 x i32], [4 x double], [6 x double], [4 x float], float, float, i32, i32, i32, i32, i32, i32, i32, ptr, ptr, ptr, ptr, i32, i32, i32, i32, i32, i32, [4 x i32], i32, i32, float, float, i32, i32, i32, i32, i32, i32, i32, i32, float, float, i32, i32 }
%struct.libraw_raw_unpack_params_t = type { i32, i32, i32, i32, i32, i32, i32, float, [5 x i8], ptr }
%struct.libraw_colordata_t = type { [65536 x i16], [4104 x i32], i32, i32, i32, [4 x i64], float, float, [8 x [8 x i16]], [4 x float], [4 x float], [3 x [4 x float]], [3 x [4 x float]], [3 x [4 x float]], [4 x [3 x float]], %struct.ph1_t, float, float, [64 x i8], [64 x i8], [64 x i8], [64 x i8], [17 x i8], [64 x i8], ptr, i32, [8 x i32], [2 x %struct.libraw_dng_color_t], %struct.libraw_dng_levels_t, [256 x [4 x i32]], [64 x [5 x float]], i32, [2 x %struct.libraw_P1_color_t], i32, i32 }
%struct.ph1_t = type { i32, i32, i32, i32, i32, i32, i32, i32, float }
%struct.libraw_dng_color_t = type { i32, i16, [4 x [4 x float]], [4 x [3 x float]], [3 x [4 x float]] }
%struct.libraw_dng_levels_t = type { i32, [4104 x i32], i32, [4104 x float], float, [4 x i32], [4 x i16], [4 x float], i32, [4 x float], [4 x float], float, float }
%struct.libraw_P1_color_t = type { [9 x float] }
%struct.libraw_imgother_t = type { float, float, float, float, i64, i32, [32 x i32], %struct.libraw_gps_info_t, [512 x i8], [64 x i8], [4 x float] }
%struct.libraw_gps_info_t = type { [3 x float], [3 x float], [3 x float], float, i8, i8, i8, i8, i8 }
%struct.libraw_thumbnail_t = type { i32, i16, i16, i32, i32, ptr }
%struct.libraw_thumbnail_list_t = type { i32, [8 x %struct.libraw_thumbnail_item_t] }
%struct.libraw_thumbnail_item_t = type { i32, i16, i16, i16, i32, i32, i64 }
%struct.libraw_rawdata_t = type { ptr, ptr, ptr, ptr, ptr, ptr, ptr, ptr, ptr, %struct.libraw_iparams_t, %struct.libraw_image_sizes_t, %struct.libraw_internal_output_params_t, %struct.libraw_colordata_t }
%struct.libraw_internal_output_params_t = type { i32, i32, i32, i16, i16 }
%struct.libraw_internal_data_t = type { %struct.internal_data_t, %struct.libraw_internal_output_params_t, %struct.output_data_t, %struct.identify_data_t, %struct.unpacker_data_t }
%struct.internal_data_t = type { ptr, ptr, i32, ptr, i64, i64, [4 x i32] }
%struct.output_data_t = type { ptr, ptr }
%struct.identify_data_t = type { i32, i64, i64, i32, i32, i32 }
%struct.unpacker_data_t = type { i16, [4 x i16], [3 x i16], i32, i64, i64, i64, i64, i64, i64, i32, i32, i32, i32, i32, i32, i32, i32, i32, i32, i32, i32, i32, i32, i32, i32, i32, i64, i32, i32, i32, i32, i32, i32, i32, i32, i32, %struct.pana8_tags_t, [16 x %struct.crx_data_header_t], i32, i32, i16, i16, i32, i32, i32, i32, i32, i32, i32, [20 x i32], i16 }
%struct.pana8_tags_t = type { [6 x i32], [6 x i16], i16, [4 x i16], [17 x i16], [17 x i16], [17 x i16], i16, i16, [5 x i64], [5 x i16], [5 x i32], [5 x i16], [5 x i16] }
%struct.crx_data_header_t = type { i32, i32, i32, i32, i32, i32, i32, i32, i32, i32, i32, i32, i32, i32, i32, i64, i32, ptr, i32, i32, i32, ptr, i32, ptr }
%struct.decode = type { [2 x ptr], i32 }
%struct.tiff_ifd_t = type { i32, i32, i32, i32, i32, i32, i32, i32, i32, i32, i32, i32, i32, i32, i32, ptr, i32, ptr, i32, i32, i32, i32, i32, i32, i32, float, i64, i64, i32, [2 x %struct.libraw_dng_color_t], %struct.libraw_dng_levels_t, i32 }
%class.libraw_memmgr = type <{ ptr, i32, [4 x i8] }>
%struct.libraw_callbacks_t = type { ptr, ptr, ptr, ptr, ptr, ptr, ptr, ptr, ptr, ptr, ptr, ptr, ptr, ptr, ptr, ptr, ptr }

; Function Attrs: mustprogress uwtable
define void @_ZN6LibRaw30unpacked_load_raw_fuji_f700s20Ev(ptr noundef nonnull align 8 dereferenceable(767680) %0) #0 align 2 {
  %2 = alloca ptr, align 8
  %3 = alloca i32, align 4
  %4 = alloca i32, align 4
  %5 = alloca ptr, align 8
  %6 = alloca i32, align 4
  store ptr %0, ptr %2, align 8, !tbaa !6
  %7 = load ptr, ptr %2, align 8
  call void @llvm.lifetime.start.p0(i64 4, ptr %3) #14
  store i32 0, ptr %3, align 4, !tbaa !83
  call void @llvm.lifetime.start.p0(i64 4, ptr %4) #14
  %8 = getelementptr inbounds nuw %class.LibRaw, ptr %7, i32 0, i32 1
  %9 = getelementptr inbounds nuw %struct.libraw_data_t, ptr %8, i32 0, i32 1
  %10 = getelementptr inbounds nuw %struct.libraw_image_sizes_t, ptr %9, i32 0, i32 1
  %11 = load i16, ptr %10, align 2, !tbaa !77
  %12 = zext i16 %11 to i32
  %13 = mul nsw i32 %12, 2
  store i32 %13, ptr %4, align 4, !tbaa !83
  %14 = getelementptr inbounds nuw %class.LibRaw, ptr %7, i32 0, i32 1
  %15 = getelementptr inbounds nuw %struct.libraw_data_t, ptr %14, i32 0, i32 2
  %16 = getelementptr inbounds nuw %struct.libraw_iparams_t, ptr %15, i32 0, i32 7
  %17 = load i32, ptr %16, align 8, !tbaa !168
  %18 = icmp eq i32 %17, 2
  br i1 %18, label %19, label %38

19:                                               ; preds = %1
  %20 = getelementptr inbounds nuw %class.LibRaw, ptr %7, i32 0, i32 1
  %21 = getelementptr inbounds nuw %struct.libraw_data_t, ptr %20, i32 0, i32 7
  %22 = getelementptr inbounds nuw %struct.libraw_raw_unpack_params_t, ptr %21, i32 0, i32 3
  %23 = load i32, ptr %22, align 4, !tbaa !169
  %24 = icmp ne i32 %23, 0
  br i1 %24, label %25, label %38

25:                                               ; preds = %19
  %26 = getelementptr inbounds nuw %class.LibRaw, ptr %7, i32 0, i32 3
  %27 = getelementptr inbounds nuw %struct.libraw_internal_data_t, ptr %26, i32 0, i32 0
  %28 = getelementptr inbounds nuw %struct.internal_data_t, ptr %27, i32 0, i32 0
  %29 = load ptr, ptr %28, align 8, !tbaa !79
  %30 = load i32, ptr %4, align 4, !tbaa !83
  %31 = sub nsw i32 0, %30
  %32 = sext i32 %31 to i64
  %33 = load ptr, ptr %29, align 8, !tbaa !80
  %34 = getelementptr inbounds ptr, ptr %33, i64 4
  %35 = load ptr, ptr %34, align 8
  %36 = call noundef i32 %35(ptr noundef nonnull align 8 dereferenceable(8) %29, i64 noundef %32, i32 noundef 1)
  %37 = load i32, ptr %4, align 4, !tbaa !83
  store i32 %37, ptr %3, align 4, !tbaa !83
  br label %38

38:                                               ; preds = %25, %19, %1
  call void @llvm.lifetime.start.p0(i64 8, ptr %5) #14
  %39 = load i32, ptr %4, align 4, !tbaa !83
  %40 = sext i32 %39 to i64
  %41 = call noundef ptr @_ZN6LibRaw6callocEmm(ptr noundef nonnull align 8 dereferenceable(767680) %7, i64 noundef %40, i64 noundef 2)
  store ptr %41, ptr %5, align 8, !tbaa !121
  call void @llvm.lifetime.start.p0(i64 4, ptr %6) #14
  store i32 0, ptr %6, align 4, !tbaa !83
  br label %42

42:                                               ; preds = %78, %38
  %43 = load i32, ptr %6, align 4, !tbaa !83
  %44 = getelementptr inbounds nuw %class.LibRaw, ptr %7, i32 0, i32 1
  %45 = getelementptr inbounds nuw %struct.libraw_data_t, ptr %44, i32 0, i32 1
  %46 = getelementptr inbounds nuw %struct.libraw_image_sizes_t, ptr %45, i32 0, i32 0
  %47 = load i16, ptr %46, align 8, !tbaa !78
  %48 = zext i16 %47 to i32
  %49 = icmp slt i32 %43, %48
  br i1 %49, label %51, label %50

50:                                               ; preds = %42
  call void @llvm.lifetime.end.p0(i64 4, ptr %6) #14
  br label %81

51:                                               ; preds = %42
  %52 = load ptr, ptr %5, align 8, !tbaa !121
  %53 = getelementptr inbounds nuw %class.LibRaw, ptr %7, i32 0, i32 1
  %54 = getelementptr inbounds nuw %struct.libraw_data_t, ptr %53, i32 0, i32 1
  %55 = getelementptr inbounds nuw %struct.libraw_image_sizes_t, ptr %54, i32 0, i32 1
  %56 = load i16, ptr %55, align 2, !tbaa !77
  %57 = zext i16 %56 to i32
  %58 = mul nsw i32 %57, 2
  call void @_ZN6LibRaw11read_shortsEPtj(ptr noundef nonnull align 8 dereferenceable(767680) %7, ptr noundef %52, i32 noundef %58)
  %59 = getelementptr inbounds nuw %class.LibRaw, ptr %7, i32 0, i32 1
  %60 = getelementptr inbounds nuw %struct.libraw_data_t, ptr %59, i32 0, i32 14
  %61 = getelementptr inbounds nuw %struct.libraw_rawdata_t, ptr %60, i32 0, i32 1
  %62 = load ptr, ptr %61, align 8, !tbaa !76
  %63 = load i32, ptr %6, align 4, !tbaa !83
  %64 = getelementptr inbounds nuw %class.LibRaw, ptr %7, i32 0, i32 1
  %65 = getelementptr inbounds nuw %struct.libraw_data_t, ptr %64, i32 0, i32 1
  %66 = getelementptr inbounds nuw %struct.libraw_image_sizes_t, ptr %65, i32 0, i32 8
  %67 = load i32, ptr %66, align 8, !tbaa !114
  %68 = mul i32 %63, %67
  %69 = udiv i32 %68, 2
  %70 = zext i32 %69 to i64
  %71 = getelementptr inbounds nuw i16, ptr %62, i64 %70
  %72 = load ptr, ptr %5, align 8, !tbaa !121
  %73 = load i32, ptr %3, align 4, !tbaa !83
  %74 = sext i32 %73 to i64
  %75 = getelementptr inbounds i8, ptr %72, i64 %74
  %76 = load i32, ptr %4, align 4, !tbaa !83
  %77 = sext i32 %76 to i64
  call void @llvm.memmove.p0.p0.i64(ptr align 2 %71, ptr align 1 %75, i64 %77, i1 false)
  br label %78

78:                                               ; preds = %51
  %79 = load i32, ptr %6, align 4, !tbaa !83
  %80 = add nsw i32 %79, 1
  store i32 %80, ptr %6, align 4, !tbaa !83
  br label %42, !llvm.loop !170

81:                                               ; preds = %50
  %82 = load ptr, ptr %5, align 8, !tbaa !121
  call void @_ZN6LibRaw4freeEPv(ptr noundef nonnull align 8 dereferenceable(767680) %7, ptr noundef %82)
  call void @llvm.lifetime.end.p0(i64 8, ptr %5) #14
  call void @llvm.lifetime.end.p0(i64 4, ptr %4) #14
  call void @llvm.lifetime.end.p0(i64 4, ptr %3) #14
  ret void
}