; Function Attrs: mustprogress uwtable
define void @_ZN6LibRaw30unpacked_load_raw_fuji_f700s20Ev(ptr noundef nonnull align 8 dereferenceable(767680) %0) local_unnamed_addr #0 align 2 {
  %2 = getelementptr inbounds nuw i8, ptr %0, i64 16
  %3 = getelementptr inbounds nuw i8, ptr %0, i64 18
  %4 = load i16, ptr %3, align 2, !tbaa !74
  %5 = zext i16 %4 to i32
  %6 = shl nuw nsw i32 %5, 1
  %7 = getelementptr inbounds nuw i8, ptr %0, i64 528
  %8 = load i32, ptr %7, align 8, !tbaa !150
  %9 = icmp ne i32 %8, 2
  %10 = getelementptr inbounds nuw i8, ptr %0, i64 5460
  %11 = load i32, ptr %10, align 4
  %.not = icmp eq i32 %11, 0
  %or.cond = select i1 %9, i1 true, i1 %.not
  br i1 %or.cond, label %._crit_edge15, label %12

._crit_edge15:                                    ; preds = %1
  %.pre = zext nneg i32 %6 to i64
  br label %22

12:                                               ; preds = %1
  %13 = getelementptr inbounds nuw i8, ptr %0, i64 381416
  %14 = load ptr, ptr %13, align 8, !tbaa !76
  %15 = sub nsw i32 0, %6
  %16 = sext i32 %15 to i64
  %17 = load ptr, ptr %14, align 8, !tbaa !77
  %18 = getelementptr inbounds nuw i8, ptr %17, i64 32
  %19 = load ptr, ptr %18, align 8
  %20 = tail call noundef i32 %19(ptr noundef nonnull align 8 dereferenceable(8) %14, i64 noundef %16, i32 noundef 1)
  %21 = zext nneg i32 %6 to i64
  br label %22

22:                                               ; preds = %._crit_edge15, %12
  %.pre-phi = phi i64 [ %.pre, %._crit_edge15 ], [ %21, %12 ]
  %.011 = phi i64 [ 0, %._crit_edge15 ], [ %21, %12 ]
  %23 = tail call noundef ptr @_ZN6LibRaw6callocEmm(ptr noundef nonnull align 8 dereferenceable(767680) %0, i64 noundef %.pre-phi, i64 noundef 2)
  %24 = load i16, ptr %2, align 8, !tbaa !75
  %.not14 = icmp eq i16 %24, 0
  br i1 %.not14, label %._crit_edge, label %.lr.ph

.lr.ph:                                           ; preds = %22
  %25 = getelementptr inbounds nuw i8, ptr %0, i64 193648
  %26 = getelementptr inbounds nuw i8, ptr %0, i64 32
  %27 = getelementptr inbounds nuw i8, ptr %23, i64 %.011
  br label %28

._crit_edge:                                      ; preds = %28, %22
  tail call void @_ZN6LibRaw4freeEPv(ptr noundef nonnull align 8 dereferenceable(767680) %0, ptr noundef %23)
  ret void

28:                                               ; preds = %.lr.ph, %28
  %.013 = phi i32 [ 0, %.lr.ph ], [ %38, %28 ]
  %29 = load i16, ptr %3, align 2, !tbaa !74
  %30 = zext i16 %29 to i32
  %31 = shl nuw nsw i32 %30, 1
  tail call void @_ZN6LibRaw11read_shortsEPtj(ptr noundef nonnull align 8 dereferenceable(767680) %0, ptr noundef %23, i32 noundef %31)
  %32 = load ptr, ptr %25, align 8, !tbaa !73
  %33 = load i32, ptr %26, align 8, !tbaa !112
  %34 = mul i32 %33, %.013
  %35 = lshr i32 %34, 1
  %36 = zext nneg i32 %35 to i64
  %37 = getelementptr inbounds nuw i16, ptr %32, i64 %36
  tail call void @llvm.memmove.p0.p0.i64(ptr align 2 %37, ptr align 1 %27, i64 %.pre-phi, i1 false)
  %38 = add nuw nsw i32 %.013, 1
  %39 = load i16, ptr %2, align 8, !tbaa !75
  %40 = zext i16 %39 to i32
  %41 = icmp samesign ult i32 %38, %40
  br i1 %41, label %28, label %._crit_edge, !llvm.loop !151
}